target datalayout = "e-m:e-p270:32:32-p271:32:32-p272:64:64-i64:64-i128:128-f80:128-n8:16:32:64-S128"
target triple = "x86_64-pc-linux-gnu"

%struct.H5C_cache_entry_t = type { ptr, i64, i64, ptr, i8, ptr, i8, i8, i8, i8, i32, i8, i8, i8, i8, i8, i32, ptr, i32, i32, i32, i32, i32, i8, i8, ptr, ptr, ptr, ptr, ptr, ptr, i8, i32, i8, i64, ptr, i64, i64, i32, i8, i32, i32, i8, ptr, ptr, ptr }
%struct.H5C_t = type { i8, ptr, ptr, i32, ptr, i64, i64, ptr, i8, ptr, i8, i8, i32, i64, [6 x i32], [6 x i64], i64, [6 x i64], i64, [6 x i64], [65536 x ptr], i32, i64, ptr, ptr, i64, ptr, ptr, i8, i8, i32, i64, [6 x i32], [6 x i64], ptr, i32, ptr, i8, i32, i32, i64, ptr, ptr, i32, i64, ptr, ptr, i32, i64, ptr, ptr, i8, i8, i64, i8, i8, i8, i8, i8, i8, %struct.H5C_auto_size_ctl_t, i32, [10 x i8], [11 x i32], i32, i32, i32, [10 x %struct.H5C_cache_entry_t], i64, i64, %struct.H5C_cache_image_ctl_t, i8, i8, i8, i8, i64, i64, i64, i64, i64, i64, i64, i32, ptr, ptr, i8, i8, [32 x i8] }
%struct.H5C_auto_size_ctl_t = type { i32, ptr, i8, i64, double, i64, i64, i64, i32, double, double, i8, i64, i32, double, double, i32, double, double, i8, i64, i32, i8, double }
%struct.H5C_cache_image_ctl_t = type { i32, i8, i8, i32, i32 }

@H5C_init_g = external global i8, align 1
@H5_libterm_g = external global i8, align 1
@.str = private unnamed_addr constant [102 x i8] c"generated/home/dtcxzyw/WorkSpace/Projects/compilers/llvm-opt-benchmark/bench/hdf5/hdf5/src/H5Centry.c\00", align 1
@H5E_CACHE_g = external global i64, align 8
@H5E_SYSTEM_g = external global i64, align 8
@__func__.H5C_unsettle_entry_ring = private unnamed_addr constant [24 x i8] c"H5C_unsettle_entry_ring\00", align 1
@.str.58 = private unnamed_addr constant [31 x i8] c"unexpected rdfsm ring unsettle\00", align 1
@.str.59 = private unnamed_addr constant [31 x i8] c"unexpected mdfsm ring unsettle\00", align 1

; Function Attrs: nounwind uwtable
define i32 @H5C_unsettle_entry_ring(ptr noundef %0) #0 {
  %2 = alloca ptr, align 8
  %3 = alloca ptr, align 8
  %4 = alloca ptr, align 8
  %5 = alloca i32, align 4
  %6 = alloca i8, align 1
  store ptr %0, ptr %2, align 8, !tbaa !126
  call void @llvm.lifetime.start.p0(i64 8, ptr %3) #7
  %7 = load ptr, ptr %2, align 8, !tbaa !126
  store ptr %7, ptr %3, align 8, !tbaa !8
  call void @llvm.lifetime.start.p0(i64 8, ptr %4) #7
  call void @llvm.lifetime.start.p0(i64 4, ptr %5) #7
  store i32 0, ptr %5, align 4, !tbaa !10
  call void @llvm.lifetime.start.p0(i64 1, ptr %6) #7
  store i8 0, ptr %6, align 1, !tbaa !12
  %8 = load i8, ptr @H5C_init_g, align 1, !tbaa !12, !range !16, !noundef !17
  %9 = trunc i8 %8 to i1
  br i1 %9, label %14, label %10

10:                                               ; preds = %1
  %11 = load i8, ptr @H5_libterm_g, align 1, !tbaa !12, !range !16, !noundef !17
  %12 = trunc i8 %11 to i1
  %13 = xor i1 %12, true
  br label %14

14:                                               ; preds = %10, %1
  %15 = phi i1 [ false, %1 ], [ %13, %10 ]
  %16 = xor i1 %15, true
  %17 = xor i1 %16, true
  %18 = zext i1 %17 to i32
  %19 = sext i32 %18 to i64
  %20 = call i64 @llvm.expect.i64(i64 %19, i64 0)
  %21 = icmp ne i64 %20, 0
  br i1 %21, label %22, label %23

22:                                               ; preds = %14
  store i8 1, ptr @H5C_init_g, align 1, !tbaa !12
  br label %23

23:                                               ; preds = %22, %14
  %24 = load i8, ptr @H5C_init_g, align 1, !tbaa !12, !range !16, !noundef !17
  %25 = trunc i8 %24 to i1
  br i1 %25, label %30, label %26

26:                                               ; preds = %23
  %27 = load i8, ptr @H5_libterm_g, align 1, !tbaa !12, !range !16, !noundef !17
  %28 = trunc i8 %27 to i1
  %29 = xor i1 %28, true
  br label %30

30:                                               ; preds = %26, %23
  %31 = phi i1 [ true, %23 ], [ %29, %26 ]
  %32 = xor i1 %31, true
  %33 = xor i1 %32, true
  %34 = zext i1 %33 to i32
  %35 = sext i32 %34 to i64
  %36 = call i64 @llvm.expect.i64(i64 %35, i64 1)
  %37 = icmp ne i64 %36, 0
  br i1 %37, label %38, label %124

38:                                               ; preds = %30
  %39 = load ptr, ptr %3, align 8, !tbaa !8
  %40 = getelementptr inbounds nuw %struct.H5C_cache_entry_t, ptr %39, i32 0, i32 0
  %41 = load ptr, ptr %40, align 8, !tbaa !109
  store ptr %41, ptr %4, align 8, !tbaa !44
  %42 = load ptr, ptr %3, align 8, !tbaa !8
  %43 = getelementptr inbounds nuw %struct.H5C_cache_entry_t, ptr %42, i32 0, i32 16
  %44 = load i32, ptr %43, align 8, !tbaa !82
  switch i32 %44, label %121 [
    i32 1, label %122
    i32 2, label %45
    i32 3, label %83
  ]

45:                                               ; preds = %38
  %46 = load ptr, ptr %4, align 8, !tbaa !44
  %47 = getelementptr inbounds nuw %struct.H5C_t, ptr %46, i32 0, i32 85
  %48 = load i8, ptr %47, align 8, !tbaa !189, !range !16, !noundef !17
  %49 = trunc i8 %48 to i1
  br i1 %49, label %50, label %82

50:                                               ; preds = %45
  %51 = load ptr, ptr %4, align 8, !tbaa !44
  %52 = getelementptr inbounds nuw %struct.H5C_t, ptr %51, i32 0, i32 0
  %53 = load i8, ptr %52, align 8, !tbaa !190, !range !16, !noundef !17
  %54 = trunc i8 %53 to i1
  br i1 %54, label %60, label %55

55:                                               ; preds = %50
  %56 = load ptr, ptr %4, align 8, !tbaa !44
  %57 = getelementptr inbounds nuw %struct.H5C_t, ptr %56, i32 0, i32 11
  %58 = load i8, ptr %57, align 1, !tbaa !51, !range !16, !noundef !17
  %59 = trunc i8 %58 to i1
  br i1 %59, label %60, label %79

60:                                               ; preds = %55, %50
  br label %61

61:                                               ; preds = %60
  br label %62

62:                                               ; preds = %61
  br label %63

63:                                               ; preds = %62
  %64 = load i64, ptr @H5E_CACHE_g, align 8, !tbaa !14
  %65 = load i64, ptr @H5E_SYSTEM_g, align 8, !tbaa !14
  %66 = call i32 (ptr, ptr, i32, i64, i64, ptr, ...) @H5E_printf_stack(ptr noundef @.str, ptr noundef @__func__.H5C_unsettle_entry_ring, i32 noundef 3718, i64 noundef %64, i64 noundef %65, ptr noundef @.str.58)
  br label %67

67:                                               ; preds = %63
  br label %68

68:                                               ; preds = %67
  store i8 1, ptr %6, align 1, !tbaa !12
  %69 = load i8, ptr %6, align 1, !tbaa !12, !range !16, !noundef !17
  %70 = trunc i8 %69 to i1
  %71 = zext i1 %70 to i8
  store i8 %71, ptr %6, align 1, !tbaa !12
  br label %72

72:                                               ; preds = %68
  br label %73

73:                                               ; preds = %72
  br label %74

74:                                               ; preds = %73
  store i32 -1, ptr %5, align 4, !tbaa !10
  br label %123

75:                                               ; No predecessors!
  br label %76

76:                                               ; preds = %75
  br label %77

77:                                               ; preds = %76
  br label %78

78:                                               ; preds = %77
  br label %79

79:                                               ; preds = %78, %55
  %80 = load ptr, ptr %4, align 8, !tbaa !44
  %81 = getelementptr inbounds nuw %struct.H5C_t, ptr %80, i32 0, i32 85
  store i8 0, ptr %81, align 8, !tbaa !189
  br label %82

82:                                               ; preds = %79, %45
  br label %122

83:                                               ; preds = %38
  %84 = load ptr, ptr %4, align 8, !tbaa !44
  %85 = getelementptr inbounds nuw %struct.H5C_t, ptr %84, i32 0, i32 86
  %86 = load i8, ptr %85, align 1, !tbaa !191, !range !16, !noundef !17
  %87 = trunc i8 %86 to i1
  br i1 %87, label %88, label %120

88:                                               ; preds = %83
  %89 = load ptr, ptr %4, align 8, !tbaa !44
  %90 = getelementptr inbounds nuw %struct.H5C_t, ptr %89, i32 0, i32 0
  %91 = load i8, ptr %90, align 8, !tbaa !190, !range !16, !noundef !17
  %92 = trunc i8 %91 to i1
  br i1 %92, label %98, label %93

93:                                               ; preds = %88
  %94 = load ptr, ptr %4, align 8, !tbaa !44
  %95 = getelementptr inbounds nuw %struct.H5C_t, ptr %94, i32 0, i32 11
  %96 = load i8, ptr %95, align 1, !tbaa !51, !range !16, !noundef !17
  %97 = trunc i8 %96 to i1
  br i1 %97, label %98, label %117

98:                                               ; preds = %93, %88
  br label %99

99:                                               ; preds = %98
  br label %100

100:                                              ; preds = %99
  br label %101

101:                                              ; preds = %100
  %102 = load i64, ptr @H5E_CACHE_g, align 8, !tbaa !14
  %103 = load i64, ptr @H5E_SYSTEM_g, align 8, !tbaa !14
  %104 = call i32 (ptr, ptr, i32, i64, i64, ptr, ...) @H5E_printf_stack(ptr noundef @.str, ptr noundef @__func__.H5C_unsettle_entry_ring, i32 noundef 3726, i64 noundef %102, i64 noundef %103, ptr noundef @.str.59)
  br label %105

105:                                              ; preds = %101
  br label %106

106:                                              ; preds = %105
  store i8 1, ptr %6, align 1, !tbaa !12
  %107 = load i8, ptr %6, align 1, !tbaa !12, !range !16, !noundef !17
  %108 = trunc i8 %107 to i1
  %109 = zext i1 %108 to i8
  store i8 %109, ptr %6, align 1, !tbaa !12
  br label %110

110:                                              ; preds = %106
  br label %111

111:                                              ; preds = %110
  br label %112

112:                                              ; preds = %111
  store i32 -1, ptr %5, align 4, !tbaa !10
  br label %123

113:                                              ; No predecessors!
  br label %114

114:                                              ; preds = %113
  br label %115

115:                                              ; preds = %114
  br label %116

116:                                              ; preds = %115
  br label %117

117:                                              ; preds = %116, %93
  %118 = load ptr, ptr %4, align 8, !tbaa !44
  %119 = getelementptr inbounds nuw %struct.H5C_t, ptr %118, i32 0, i32 86
  store i8 0, ptr %119, align 1, !tbaa !191
  br label %120

120:                                              ; preds = %117, %83
  br label %122

121:                                              ; preds = %38
  br label %122

122:                                              ; preds = %121, %120, %82, %38
  br label %123

123:                                              ; preds = %122, %112, %74
  br label %124

124:                                              ; preds = %123, %30
  %125 = load i32, ptr %5, align 4, !tbaa !10
  call void @llvm.lifetime.end.p0(i64 1, ptr %6) #7
  call void @llvm.lifetime.end.p0(i64 4, ptr %5) #7
  call void @llvm.lifetime.end.p0(i64 8, ptr %4) #7
  call void @llvm.lifetime.end.p0(i64 8, ptr %3) #7
  ret i32 %125
}