; Function Attrs: nounwind uwtable
define range(i32 -1, 1) i32 @H5C_unsettle_entry_ring(ptr noundef readonly captures(none) %0) local_unnamed_addr #0 {
  %2 = load i8, ptr @H5C_init_g, align 1, !tbaa !3, !range !7, !noundef !8
  %3 = trunc nuw i8 %2 to i1
  %4 = load i8, ptr @H5_libterm_g, align 1, !range !7
  %5 = trunc nuw i8 %4 to i1
  %6 = select i1 %3, i1 true, i1 %5
  br i1 %6, label %7, label %.thread, !prof !9

.thread:                                          ; preds = %1
  store i8 1, ptr @H5C_init_g, align 1, !tbaa !3
  br label %10

7:                                                ; preds = %1
  %8 = xor i1 %5, true
  %9 = select i1 %3, i1 true, i1 %8
  br i1 %9, label %10, label %46, !prof !150

10:                                               ; preds = %.thread, %7
  %11 = load ptr, ptr %0, align 8, !tbaa !112
  %12 = getelementptr inbounds nuw i8, ptr %0, i64 64
  %13 = load i32, ptr %12, align 8, !tbaa !80
  switch i32 %13, label %46 [
    i32 3, label %30
    i32 2, label %14
  ]

14:                                               ; preds = %10
  %15 = getelementptr inbounds nuw i8, ptr %11, i64 527720
  %16 = load i8, ptr %15, align 8, !tbaa !185, !range !7, !noundef !8
  %17 = trunc nuw i8 %16 to i1
  br i1 %17, label %18, label %46

18:                                               ; preds = %14
  %19 = load i8, ptr %11, align 8, !tbaa !186, !range !7, !noundef !8
  %20 = trunc nuw i8 %19 to i1
  br i1 %20, label %25, label %21

21:                                               ; preds = %18
  %22 = getelementptr inbounds nuw i8, ptr %11, i64 81
  %23 = load i8, ptr %22, align 1, !tbaa !47, !range !7, !noundef !8
  %24 = trunc nuw i8 %23 to i1
  br i1 %24, label %25, label %29

25:                                               ; preds = %18, %21
  %26 = load i64, ptr @H5E_CACHE_g, align 8, !tbaa !59
  %27 = load i64, ptr @H5E_SYSTEM_g, align 8, !tbaa !59
  %28 = tail call i32 (ptr, ptr, i32, i64, i64, ptr, ...) @H5E_printf_stack(ptr noundef nonnull @.str, ptr noundef nonnull @__func__.H5C_unsettle_entry_ring, i32 noundef 3718, i64 noundef %26, i64 noundef %27, ptr noundef nonnull @.str.58) #9
  br label %46

29:                                               ; preds = %21
  store i8 0, ptr %15, align 8, !tbaa !185
  br label %46

30:                                               ; preds = %10
  %31 = getelementptr inbounds nuw i8, ptr %11, i64 527721
  %32 = load i8, ptr %31, align 1, !tbaa !187, !range !7, !noundef !8
  %33 = trunc nuw i8 %32 to i1
  br i1 %33, label %34, label %46

34:                                               ; preds = %30
  %35 = load i8, ptr %11, align 8, !tbaa !186, !range !7, !noundef !8
  %36 = trunc nuw i8 %35 to i1
  br i1 %36, label %41, label %37

37:                                               ; preds = %34
  %38 = getelementptr inbounds nuw i8, ptr %11, i64 81
  %39 = load i8, ptr %38, align 1, !tbaa !47, !range !7, !noundef !8
  %40 = trunc nuw i8 %39 to i1
  br i1 %40, label %41, label %45

41:                                               ; preds = %34, %37
  %42 = load i64, ptr @H5E_CACHE_g, align 8, !tbaa !59
  %43 = load i64, ptr @H5E_SYSTEM_g, align 8, !tbaa !59
  %44 = tail call i32 (ptr, ptr, i32, i64, i64, ptr, ...) @H5E_printf_stack(ptr noundef nonnull @.str, ptr noundef nonnull @__func__.H5C_unsettle_entry_ring, i32 noundef 3726, i64 noundef %42, i64 noundef %43, ptr noundef nonnull @.str.59) #9
  br label %46

45:                                               ; preds = %37
  store i8 0, ptr %31, align 1, !tbaa !187
  br label %46

46:                                               ; preds = %25, %41, %10, %30, %45, %14, %29, %7
  %.0 = phi i32 [ 0, %10 ], [ -1, %25 ], [ 0, %29 ], [ 0, %14 ], [ -1, %41 ], [ 0, %45 ], [ 0, %30 ], [ 0, %7 ]
  ret i32 %.0
}